Certificate:
    Data:
        Version: 3 (0x2)
        Serial Number: 3 (0x3)
    Signature Algorithm: sha1WithRSAEncryption
        Issuer: C=CN, ST=BJ, L=Beijing, O=UbuntuLoadShare, OU=Network, CN=UbuntuLoadshareServer/name=LoadShare/emailAddress=alps.xing@gmail.com
        Validity
            Not Before: Jan 14 02:35:54 2014 GMT
            Not After : Jan 12 02:35:54 2024 GMT
        Subject: C=CN, ST=BJ, L=Beijing, O=UbuntuLoadShare, OU=changeme, CN=client2/name=changeme/emailAddress=alps.xing@gmail.com
        Subject Public Key Info:
            Public Key Algorithm: rsaEncryption
                Public-Key: (1024 bit)
                Modulus:
                    00:d3:c8:e7:ad:30:18:99:a8:7a:8a:c4:7e:4d:0d:
                    94:54:f0:73:64:98:98:f2:a2:08:d9:47:12:dc:26:
                    b1:45:e7:32:1a:c0:0c:09:78:50:9d:16:da:39:7b:
                    2a:17:ce:18:14:95:b9:77:ca:80:e6:9d:ee:86:d5:
                    ab:2e:2d:ab:ee:15:a2:93:8b:13:de:7f:59:25:5f:
                    b4:3b:1c:68:da:af:2f:16:65:60:76:47:c7:2d:d5:
                    3b:27:15:1e:7b:7c:ac:60:1a:0f:fb:2d:da:b0:ed:
                    7e:5d:e5:0f:98:62:e5:b3:e7:21:ca:b5:b1:82:26:
                    aa:51:8b:1f:ff:05:2b:46:d1
                Exponent: 65537 (0x10001)
        X509v3 extensions:
            X509v3 Basic Constraints: 
                CA:FALSE
            Netscape Comment: 
                Easy-RSA Generated Certificate
            X509v3 Subject Key Identifier: 
                F9:1D:33:AA:3B:81:FD:13:E8:1E:0F:1B:32:79:32:39:AF:52:17:5F
            X509v3 Authority Key Identifier: 
                keyid:6B:8F:EE:BE:41:37:EB:62:11:E3:FF:53:F0:8F:0D:EF:8E:67:43:3A
                DirName:/C=CN/ST=BJ/L=Beijing/O=UbuntuLoadShare/OU=Network/CN=UbuntuLoadshareServer/name=LoadShare/emailAddress=alps.xing@gmail.com
                serial:D9:09:60:3C:A3:63:FC:0F

            X509v3 Extended Key Usage: 
                TLS Web Client Authentication
            X509v3 Key Usage: 
                Digital Signature
    Signature Algorithm: sha1WithRSAEncryption
         96:67:bc:15:e0:e4:af:8c:d1:47:cf:af:22:43:fe:32:d1:c0:
         cc:61:e8:2a:2b:0b:bb:21:c7:95:90:82:d8:5c:95:49:70:e8:
         e6:fe:e5:7c:5a:f4:fa:e6:6c:b6:b1:fe:dd:98:f7:bb:43:28:
         1e:28:ac:99:92:1d:f7:0a:a2:76:aa:b0:86:83:8a:4a:aa:94:
         8d:76:24:93:47:92:27:30:02:cb:d2:e5:79:02:dd:34:d6:b6:
         0e:0e:42:44:0c:16:b1:fe:6b:b9:97:a2:71:1e:7e:e0:fe:e7:
         23:49:1d:95:36:3b:bd:1b:af:b9:e6:c5:4b:d1:12:05:c4:74:
         08:22
-----BEGIN CERTIFICATE-----
MIIEMzCCA5ygAwIBAgIBAzANBgkqhkiG9w0BAQUFADCBsDELMAkGA1UEBhMCQ04x
CzAJBgNVBAgTAkJKMRAwDgYDVQQHEwdCZWlqaW5nMRgwFgYDVQQKEw9VYnVudHVM
b2FkU2hhcmUxEDAOBgNVBAsTB05ldHdvcmsxHjAcBgNVBAMTFVVidW50dUxvYWRz
aGFyZVNlcnZlcjESMBAGA1UEKRMJTG9hZFNoYXJlMSIwIAYJKoZIhvcNAQkBFhNh
bHBzLnhpbmdAZ21haWwuY29tMB4XDTE0MDExNDAyMzU1NFoXDTI0MDExMjAyMzU1
NFowgaIxCzAJBgNVBAYTAkNOMQswCQYDVQQIEwJCSjEQMA4GA1UEBxMHQmVpamlu
ZzEYMBYGA1UEChMPVWJ1bnR1TG9hZFNoYXJlMREwDwYDVQQLEwhjaGFuZ2VtZTEQ
MA4GA1UEAxMHY2xpZW50MjERMA8GA1UEKRMIY2hhbmdlbWUxIjAgBgkqhkiG9w0B
CQEWE2FscHMueGluZ0BnbWFpbC5jb20wgZ8wDQYJKoZIhvcNAQEBBQADgY0AMIGJ
AoGBANPI560wGJmoeorEfk0NlFTwc2SYmPKiCNlHEtwmsUXnMhrADAl4UJ0W2jl7
KhfOGBSVuXfKgOad7obVqy4tq+4VopOLE95/WSVftDscaNqvLxZlYHZHxy3VOycV
Hnt8rGAaD/st2rDtfl3lD5hi5bPnIcq1sYImqlGLH/8FK0bRAgMBAAGjggFnMIIB
YzAJBgNVHRMEAjAAMC0GCWCGSAGG+EIBDQQgFh5FYXN5LVJTQSBHZW5lcmF0ZWQg
Q2VydGlmaWNhdGUwHQYDVR0OBBYEFPkdM6o7gf0T6B4PGzJ5MjmvUhdfMIHlBgNV
HSMEgd0wgdqAFGuP7r5BN+tiEeP/U/CPDe+OZ0M6oYG2pIGzMIGwMQswCQYDVQQG
EwJDTjELMAkGA1UECBMCQkoxEDAOBgNVBAcTB0JlaWppbmcxGDAWBgNVBAoTD1Vi
dW50dUxvYWRTaGFyZTEQMA4GA1UECxMHTmV0d29yazEeMBwGA1UEAxMVVWJ1bnR1
TG9hZHNoYXJlU2VydmVyMRIwEAYDVQQpEwlMb2FkU2hhcmUxIjAgBgkqhkiG9w0B
CQEWE2FscHMueGluZ0BnbWFpbC5jb22CCQDZCWA8o2P8DzATBgNVHSUEDDAKBggr
BgEFBQcDAjALBgNVHQ8EBAMCB4AwDQYJKoZIhvcNAQEFBQADgYEAlme8FeDkr4zR
R8+vIkP+MtHAzGHoKisLuyHHlZCC2FyVSXDo5v7lfFr0+uZstrH+3Zj3u0MoHiis
mZId9wqidqqwhoOKSqqUjXYkk0eSJzACy9LleQLdNNa2Dg5CRAwWsf5ruZeicR5+
4P7nI0kdlTY7vRuvuebFS9ESBcR0CCI=
-----END CERTIFICATE-----
