Certificate:
    Data:
        Version: 3 (0x2)
        Serial Number: 2 (0x2)
    Signature Algorithm: sha1WithRSAEncryption
        Issuer: C=CN, ST=BJ, L=Beijing, O=UbuntuLoadShare, OU=Network, CN=UbuntuLoadshareServer/name=LoadShare/emailAddress=alps.xing@gmail.com
        Validity
            Not Before: Jan 14 02:35:35 2014 GMT
            Not After : Jan 12 02:35:35 2024 GMT
        Subject: C=CN, ST=BJ, L=Beijing, O=UbuntuLoadShare, OU=changeme, CN=client1/name=changeme/emailAddress=alps.xing@gmail.com
        Subject Public Key Info:
            Public Key Algorithm: rsaEncryption
                Public-Key: (1024 bit)
                Modulus:
                    00:c8:ff:04:ca:c0:72:10:94:d3:60:cc:0b:6a:22:
                    b7:9a:32:6f:3c:72:13:01:4a:90:5f:0f:46:43:d1:
                    a3:cb:81:04:b4:56:d3:7e:cb:1c:5e:5d:1a:19:b3:
                    4c:f9:d8:2f:d5:38:fa:d1:6c:59:c8:fa:6e:70:ed:
                    97:5c:b1:bd:86:51:00:72:92:c5:6b:7e:fc:a7:cf:
                    fd:18:53:ed:f8:09:48:d2:65:ce:03:0a:23:4a:b6:
                    7f:3a:32:fe:21:c0:b0:f4:ce:65:54:d6:24:17:08:
                    c5:7e:c7:f9:60:9c:ee:e6:25:6c:a7:80:c4:c1:6b:
                    5a:63:c1:c6:ea:59:ad:fc:f7
                Exponent: 65537 (0x10001)
        X509v3 extensions:
            X509v3 Basic Constraints: 
                CA:FALSE
            Netscape Comment: 
                Easy-RSA Generated Certificate
            X509v3 Subject Key Identifier: 
                25:21:BF:C4:3C:90:F1:09:B0:3D:35:92:E4:4A:67:82:C4:1E:BF:95
            X509v3 Authority Key Identifier: 
                keyid:6B:8F:EE:BE:41:37:EB:62:11:E3:FF:53:F0:8F:0D:EF:8E:67:43:3A
                DirName:/C=CN/ST=BJ/L=Beijing/O=UbuntuLoadShare/OU=Network/CN=UbuntuLoadshareServer/name=LoadShare/emailAddress=alps.xing@gmail.com
                serial:D9:09:60:3C:A3:63:FC:0F

            X509v3 Extended Key Usage: 
                TLS Web Client Authentication
            X509v3 Key Usage: 
                Digital Signature
    Signature Algorithm: sha1WithRSAEncryption
         5d:d5:3c:09:aa:56:8e:fd:76:d4:ac:c9:6e:68:a2:87:2e:eb:
         83:46:84:4e:28:fe:1f:55:db:69:14:d8:6e:94:c8:b6:f8:8a:
         5c:58:13:18:7a:e7:d3:83:09:ea:93:bf:f5:f1:57:69:bb:d0:
         35:f3:b9:57:b4:1d:8c:5f:2c:5f:cb:ca:e2:9e:f6:53:0c:9f:
         56:99:7c:24:e1:28:ce:81:84:44:24:a0:13:9b:82:db:80:96:
         1b:55:76:d3:a6:3b:57:e7:35:50:23:76:f9:03:f3:70:65:63:
         62:a9:0e:13:e1:2e:bd:ed:d2:67:90:96:1a:10:df:01:bc:66:
         57:e6
-----BEGIN CERTIFICATE-----
MIIEMzCCA5ygAwIBAgIBAjANBgkqhkiG9w0BAQUFADCBsDELMAkGA1UEBhMCQ04x
CzAJBgNVBAgTAkJKMRAwDgYDVQQHEwdCZWlqaW5nMRgwFgYDVQQKEw9VYnVudHVM
b2FkU2hhcmUxEDAOBgNVBAsTB05ldHdvcmsxHjAcBgNVBAMTFVVidW50dUxvYWRz
aGFyZVNlcnZlcjESMBAGA1UEKRMJTG9hZFNoYXJlMSIwIAYJKoZIhvcNAQkBFhNh
bHBzLnhpbmdAZ21haWwuY29tMB4XDTE0MDExNDAyMzUzNVoXDTI0MDExMjAyMzUz
NVowgaIxCzAJBgNVBAYTAkNOMQswCQYDVQQIEwJCSjEQMA4GA1UEBxMHQmVpamlu
ZzEYMBYGA1UEChMPVWJ1bnR1TG9hZFNoYXJlMREwDwYDVQQLEwhjaGFuZ2VtZTEQ
MA4GA1UEAxMHY2xpZW50MTERMA8GA1UEKRMIY2hhbmdlbWUxIjAgBgkqhkiG9w0B
CQEWE2FscHMueGluZ0BnbWFpbC5jb20wgZ8wDQYJKoZIhvcNAQEBBQADgY0AMIGJ
AoGBAMj/BMrAchCU02DMC2oit5oybzxyEwFKkF8PRkPRo8uBBLRW037LHF5dGhmz
TPnYL9U4+tFsWcj6bnDtl1yxvYZRAHKSxWt+/KfP/RhT7fgJSNJlzgMKI0q2fzoy
/iHAsPTOZVTWJBcIxX7H+WCc7uYlbKeAxMFrWmPBxupZrfz3AgMBAAGjggFnMIIB
YzAJBgNVHRMEAjAAMC0GCWCGSAGG+EIBDQQgFh5FYXN5LVJTQSBHZW5lcmF0ZWQg
Q2VydGlmaWNhdGUwHQYDVR0OBBYEFCUhv8Q8kPEJsD01kuRKZ4LEHr+VMIHlBgNV
HSMEgd0wgdqAFGuP7r5BN+tiEeP/U/CPDe+OZ0M6oYG2pIGzMIGwMQswCQYDVQQG
EwJDTjELMAkGA1UECBMCQkoxEDAOBgNVBAcTB0JlaWppbmcxGDAWBgNVBAoTD1Vi
dW50dUxvYWRTaGFyZTEQMA4GA1UECxMHTmV0d29yazEeMBwGA1UEAxMVVWJ1bnR1
TG9hZHNoYXJlU2VydmVyMRIwEAYDVQQpEwlMb2FkU2hhcmUxIjAgBgkqhkiG9w0B
CQEWE2FscHMueGluZ0BnbWFpbC5jb22CCQDZCWA8o2P8DzATBgNVHSUEDDAKBggr
BgEFBQcDAjALBgNVHQ8EBAMCB4AwDQYJKoZIhvcNAQEFBQADgYEAXdU8CapWjv12
1KzJbmiihy7rg0aETij+H1XbaRTYbpTItviKXFgTGHrn04MJ6pO/9fFXabvQNfO5
V7QdjF8sX8vK4p72UwyfVpl8JOEozoGERCSgE5uC24CWG1V206Y7V+c1UCN2+QPz
cGVjYqkOE+Euve3SZ5CWGhDfAbxmV+Y=
-----END CERTIFICATE-----
